target datalayout = "e-m:e-p270:32:32-p271:32:32-p272:64:64-i64:64-i128:128-f80:128-n8:16:32:64-S128"
target triple = "x86_64-pc-linux-gnu"

%struct.Aig_Man_t_ = type { ptr, ptr, ptr, ptr, ptr, ptr, ptr, %struct.Aig_Obj_t_, i32, i32, i32, i32, i32, i32, [7 x i32], i32, ptr, i32, ptr, i32, ptr, i32, i32, i32, ptr, i32, i32, i32, i32, i32, ptr, ptr, i32, ptr, ptr, i32, ptr, ptr, i32, i32, i32, ptr, ptr, ptr, ptr, ptr, ptr, ptr, ptr, ptr, ptr, ptr, ptr, ptr, ptr, i32, ptr, ptr, ptr, ptr, i32, i64, i64, i64, ptr, ptr }
%struct.Aig_Obj_t_ = type { %union.anon, ptr, ptr, i64, i32, i32, %union.anon.0 }
%union.anon = type { ptr }
%union.anon.0 = type { ptr }
%struct.Vec_Int_t_ = type { i32, i32, ptr }
%struct.timespec = type { i64, i64 }

@.str = private unnamed_addr constant [5 x i8] c"%s =\00", align 1
@.str.1 = private unnamed_addr constant [9 x i8] c"Fraiging\00", align 1
@.str.2 = private unnamed_addr constant [11 x i8] c"%9.2f sec\0A\00", align 1
@.str.3 = private unnamed_addr constant [7 x i8] c"Mapped\00", align 1
@.str.4 = private unnamed_addr constant [7 x i8] c"Normal\00", align 1

; Function Attrs: inlinehint nounwind uwtable
define internal void @Vec_IntFree(ptr noundef %0) #2 {
  %2 = alloca ptr, align 8
  store ptr %0, ptr %2, align 8, !tbaa !27
  %3 = load ptr, ptr %2, align 8, !tbaa !27
  %4 = getelementptr inbounds nuw %struct.Vec_Int_t_, ptr %3, i32 0, i32 2
  %5 = load ptr, ptr %4, align 8, !tbaa !30
  %6 = icmp ne ptr %5, null
  br i1 %6, label %7, label %13

7:                                                ; preds = %1
  %8 = load ptr, ptr %2, align 8, !tbaa !27
  %9 = getelementptr inbounds nuw %struct.Vec_Int_t_, ptr %8, i32 0, i32 2
  %10 = load ptr, ptr %9, align 8, !tbaa !30
  call void @free(ptr noundef %10) #8
  %11 = load ptr, ptr %2, align 8, !tbaa !27
  %12 = getelementptr inbounds nuw %struct.Vec_Int_t_, ptr %11, i32 0, i32 2
  store ptr null, ptr %12, align 8, !tbaa !30
  br label %14

13:                                               ; preds = %1
  br label %14

14:                                               ; preds = %13, %7
  %15 = load ptr, ptr %2, align 8, !tbaa !27
  %16 = icmp ne ptr %15, null
  br i1 %16, label %17, label %19

17:                                               ; preds = %14
  %18 = load ptr, ptr %2, align 8, !tbaa !27
  call void @free(ptr noundef %18) #8
  store ptr null, ptr %2, align 8, !tbaa !27
  br label %20

19:                                               ; preds = %14
  br label %20

20:                                               ; preds = %19, %17
  ret void
}

; Function Attrs: inlinehint nounwind uwtable
define internal void @Saig_ManStopMap2(ptr noundef %0) #2 {
  %2 = alloca ptr, align 8
  store ptr %0, ptr %2, align 8, !tbaa !3
  %3 = load ptr, ptr %2, align 8, !tbaa !3
  %4 = getelementptr inbounds nuw %struct.Aig_Man_t_, ptr %3, i32 0, i32 37
  %5 = load ptr, ptr %4, align 8, !tbaa !33
  call void @Vec_IntFree(ptr noundef %5)
  %6 = load ptr, ptr %2, align 8, !tbaa !3
  %7 = getelementptr inbounds nuw %struct.Aig_Man_t_, ptr %6, i32 0, i32 37
  store ptr null, ptr %7, align 8, !tbaa !33
  ret void
}

; Function Attrs: inlinehint nounwind uwtable
define internal void @Saig_ManStopMap1(ptr noundef %0) #2 {
  %2 = alloca ptr, align 8
  store ptr %0, ptr %2, align 8, !tbaa !3
  %3 = load ptr, ptr %2, align 8, !tbaa !3
  %4 = getelementptr inbounds nuw %struct.Aig_Man_t_, ptr %3, i32 0, i32 36
  %5 = load ptr, ptr %4, align 8, !tbaa !39
  call void @Vec_IntFree(ptr noundef %5)
  %6 = load ptr, ptr %2, align 8, !tbaa !3
  %7 = getelementptr inbounds nuw %struct.Aig_Man_t_, ptr %6, i32 0, i32 36
  store ptr null, ptr %7, align 8, !tbaa !39
  ret void
}

; Function Attrs: inlinehint nounwind uwtable
define internal i64 @Abc_Clock() #2 {
  %1 = alloca i64, align 8
  %2 = alloca %struct.timespec, align 8
  %3 = alloca i32, align 4
  %4 = alloca i64, align 8
  call void @llvm.lifetime.start.p0(i64 16, ptr %2) #8
  %5 = call i32 @clock_gettime(i32 noundef 1, ptr noundef %2) #8
  %6 = icmp slt i32 %5, 0
  br i1 %6, label %7, label %8

7:                                                ; preds = %0
  store i64 -1, ptr %1, align 8
  store i32 1, ptr %3, align 4
  br label %19

8:                                                ; preds = %0
  call void @llvm.lifetime.start.p0(i64 8, ptr %4) #8
  %9 = getelementptr inbounds nuw %struct.timespec, ptr %2, i32 0, i32 0
  %10 = load i64, ptr %9, align 8, !tbaa !77
  %11 = mul nsw i64 %10, 1000000
  store i64 %11, ptr %4, align 8, !tbaa !71
  %12 = getelementptr inbounds nuw %struct.timespec, ptr %2, i32 0, i32 1
  %13 = load i64, ptr %12, align 8, !tbaa !79
  %14 = mul nsw i64 %13, 1000000
  %15 = sdiv i64 %14, 1000000000
  %16 = load i64, ptr %4, align 8, !tbaa !71
  %17 = add nsw i64 %16, %15
  store i64 %17, ptr %4, align 8, !tbaa !71
  %18 = load i64, ptr %4, align 8, !tbaa !71
  store i64 %18, ptr %1, align 8
  store i32 1, ptr %3, align 4
  call void @llvm.lifetime.end.p0(i64 8, ptr %4) #8
  br label %19

19:                                               ; preds = %8, %7
  call void @llvm.lifetime.end.p0(i64 16, ptr %2) #8
  %20 = load i64, ptr %1, align 8
  ret i64 %20
}

; Function Attrs: nounwind uwtable
define ptr @Saig_ManTimeframeSimplify(ptr noundef %0, i32 noundef %1, i32 noundef %2, i32 noundef %3, i32 noundef %4) #0 {
  %6 = alloca ptr, align 8
  %7 = alloca i32, align 4
  %8 = alloca i32, align 4
  %9 = alloca i32, align 4
  %10 = alloca i32, align 4
  %11 = alloca ptr, align 8
  %12 = alloca ptr, align 8
  %13 = alloca ptr, align 8
  %14 = alloca ptr, align 8
  %15 = alloca i64, align 8
  store ptr %0, ptr %6, align 8, !tbaa !3
  store i32 %1, ptr %7, align 4, !tbaa !8
  store i32 %2, ptr %8, align 4, !tbaa !8
  store i32 %3, ptr %9, align 4, !tbaa !8
  store i32 %4, ptr %10, align 4, !tbaa !8
  call void @llvm.lifetime.start.p0(i64 8, ptr %11) #8
  call void @llvm.lifetime.start.p0(i64 8, ptr %12) #8
  call void @llvm.lifetime.start.p0(i64 8, ptr %13) #8
  call void @llvm.lifetime.start.p0(i64 8, ptr %14) #8
  call void @llvm.lifetime.start.p0(i64 8, ptr %15) #8
  %16 = load ptr, ptr %6, align 8, !tbaa !3
  %17 = load i32, ptr %7, align 4, !tbaa !8
  %18 = call ptr @Saig_ManFramesNonInitial(ptr noundef %16, i32 noundef %17)
  store ptr %18, ptr %11, align 8, !tbaa !3
  %19 = call i64 @Abc_Clock()
  store i64 %19, ptr %15, align 8, !tbaa !71
  %20 = load ptr, ptr %11, align 8, !tbaa !3
  %21 = call ptr @Fra_FraigEquivence(ptr noundef %20, i32 noundef 1000, i32 noundef 0)
  store ptr %21, ptr %12, align 8, !tbaa !3
  %22 = load i32, ptr %10, align 4, !tbaa !8
  %23 = icmp ne i32 %22, 0
  br i1 %23, label %24, label %33

24:                                               ; preds = %5
  %25 = load ptr, ptr %11, align 8, !tbaa !3
  call void @Aig_ManPrintStats(ptr noundef %25)
  %26 = load ptr, ptr %12, align 8, !tbaa !3
  call void @Aig_ManPrintStats(ptr noundef %26)
  call void (i32, ptr, ...) @Abc_Print(i32 noundef 1, ptr noundef @.str, ptr noundef @.str.1)
  %27 = call i64 @Abc_Clock()
  %28 = load i64, ptr %15, align 8, !tbaa !71
  %29 = sub nsw i64 %27, %28
  %30 = sitofp i64 %29 to double
  %31 = fmul double 1.000000e+00, %30
  %32 = fdiv double %31, 1.000000e+06
  call void (i32, ptr, ...) @Abc_Print(i32 noundef 1, ptr noundef @.str.2, double noundef %32)
  br label %33

33:                                               ; preds = %24, %5
  %34 = load ptr, ptr %12, align 8, !tbaa !3
  call void @Aig_ManStop(ptr noundef %34)
  %35 = load ptr, ptr %6, align 8, !tbaa !3
  %36 = load ptr, ptr %11, align 8, !tbaa !3
  %37 = load i32, ptr %7, align 4, !tbaa !8
  call void @Saig_ManCreateMapping(ptr noundef %35, ptr noundef %36, i32 noundef %37)
  %38 = load ptr, ptr %11, align 8, !tbaa !3
  call void @Aig_ManStop(ptr noundef %38)
  %39 = load ptr, ptr %6, align 8, !tbaa !3
  call void @Saig_ManStopMap1(ptr noundef %39)
  %40 = call i64 @Abc_Clock()
  store i64 %40, ptr %15, align 8, !tbaa !71
  %41 = load ptr, ptr %6, align 8, !tbaa !3
  %42 = load i32, ptr %7, align 4, !tbaa !8
  %43 = load i32, ptr %8, align 4, !tbaa !8
  %44 = load i32, ptr %9, align 4, !tbaa !8
  %45 = call ptr @Saig_ManFramesInitialMapped(ptr noundef %41, i32 noundef %42, i32 noundef %43, i32 noundef %44)
  store ptr %45, ptr %14, align 8, !tbaa !3
  call void (i32, ptr, ...) @Abc_Print(i32 noundef 1, ptr noundef @.str, ptr noundef @.str.3)
  %46 = call i64 @Abc_Clock()
  %47 = load i64, ptr %15, align 8, !tbaa !71
  %48 = sub nsw i64 %46, %47
  %49 = sitofp i64 %48 to double
  %50 = fmul double 1.000000e+00, %49
  %51 = fdiv double %50, 1.000000e+06
  call void (i32, ptr, ...) @Abc_Print(i32 noundef 1, ptr noundef @.str.2, double noundef %51)
  %52 = load ptr, ptr %6, align 8, !tbaa !3
  call void @Saig_ManStopMap2(ptr noundef %52)
  %53 = call i64 @Abc_Clock()
  store i64 %53, ptr %15, align 8, !tbaa !71
  %54 = load ptr, ptr %6, align 8, !tbaa !3
  %55 = load i32, ptr %7, align 4, !tbaa !8
  %56 = load i32, ptr %8, align 4, !tbaa !8
  %57 = load i32, ptr %9, align 4, !tbaa !8
  %58 = call ptr @Saig_ManFramesInitialMapped(ptr noundef %54, i32 noundef %55, i32 noundef %56, i32 noundef %57)
  store ptr %58, ptr %13, align 8, !tbaa !3
  call void (i32, ptr, ...) @Abc_Print(i32 noundef 1, ptr noundef @.str, ptr noundef @.str.4)
  %59 = call i64 @Abc_Clock()
  %60 = load i64, ptr %15, align 8, !tbaa !71
  %61 = sub nsw i64 %59, %60
  %62 = sitofp i64 %61 to double
  %63 = fmul double 1.000000e+00, %62
  %64 = fdiv double %63, 1.000000e+06
  call void (i32, ptr, ...) @Abc_Print(i32 noundef 1, ptr noundef @.str.2, double noundef %64)
  %65 = load i32, ptr %10, align 4, !tbaa !8
  %66 = icmp ne i32 %65, 0
  br i1 %66, label %67, label %70

67:                                               ; preds = %33
  %68 = load ptr, ptr %13, align 8, !tbaa !3
  call void @Aig_ManPrintStats(ptr noundef %68)
  %69 = load ptr, ptr %14, align 8, !tbaa !3
  call void @Aig_ManPrintStats(ptr noundef %69)
  br label %70

70:                                               ; preds = %67, %33
  %71 = load ptr, ptr %13, align 8, !tbaa !3
  call void @Aig_ManStop(ptr noundef %71)
  %72 = load ptr, ptr %14, align 8, !tbaa !3
  call void @llvm.lifetime.end.p0(i64 8, ptr %15) #8
  call void @llvm.lifetime.end.p0(i64 8, ptr %14) #8
  call void @llvm.lifetime.end.p0(i64 8, ptr %13) #8
  call void @llvm.lifetime.end.p0(i64 8, ptr %12) #8
  call void @llvm.lifetime.end.p0(i64 8, ptr %11) #8
  ret ptr %72
}