; Function Attrs: nounwind uwtable
define ptr @Saig_ManTimeframeSimplify(ptr noundef captures(none) initializes((296, 304)) %0, i32 noundef %1, i32 noundef %2, i32 noundef %3, i32 noundef %4) local_unnamed_addr #0 {
  %6 = alloca %struct.timespec, align 8
  %7 = alloca %struct.timespec, align 8
  %8 = alloca %struct.timespec, align 8
  %9 = alloca %struct.timespec, align 8
  %10 = alloca %struct.timespec, align 8
  %11 = alloca %struct.timespec, align 8
  %12 = tail call ptr @Saig_ManFramesNonInitial(ptr noundef %0, i32 noundef %1)
  call void @llvm.lifetime.start.p0(i64 16, ptr nonnull %11) #12
  %13 = call i32 @clock_gettime(i32 noundef 1, ptr noundef nonnull %11) #12
  %14 = icmp slt i32 %13, 0
  br i1 %14, label %Abc_Clock.exit, label %15

15:                                               ; preds = %5
  %16 = load i64, ptr %11, align 8, !tbaa !67
  %.neg39 = mul i64 %16, -1000000
  %17 = getelementptr inbounds nuw i8, ptr %11, i64 8
  %18 = load i64, ptr %17, align 8, !tbaa !69
  %.neg = sdiv i64 %18, -1000
  %.neg40 = add i64 %.neg, %.neg39
  br label %Abc_Clock.exit

Abc_Clock.exit:                                   ; preds = %5, %15
  %.0.i.neg = phi i64 [ %.neg40, %15 ], [ 1, %5 ]
  call void @llvm.lifetime.end.p0(i64 16, ptr nonnull %11) #12
  %19 = call ptr @Fra_FraigEquivence(ptr noundef %12, i32 noundef 1000, i32 noundef 0) #12
  %.not = icmp eq i32 %4, 0
  br i1 %.not, label %33, label %20

20:                                               ; preds = %Abc_Clock.exit
  call void @Aig_ManPrintStats(ptr noundef %12) #12
  call void @Aig_ManPrintStats(ptr noundef %19) #12
  call void (i32, ptr, ...) @Abc_Print(i32 poison, ptr noundef nonnull @.str, ptr noundef nonnull @.str.1)
  call void @llvm.lifetime.start.p0(i64 16, ptr nonnull %10) #12
  %21 = call i32 @clock_gettime(i32 noundef 1, ptr noundef nonnull %10) #12
  %22 = icmp slt i32 %21, 0
  br i1 %22, label %Abc_Clock.exit29, label %23

23:                                               ; preds = %20
  %24 = load i64, ptr %10, align 8, !tbaa !67
  %25 = mul nsw i64 %24, 1000000
  %26 = getelementptr inbounds nuw i8, ptr %10, i64 8
  %27 = load i64, ptr %26, align 8, !tbaa !69
  %28 = sdiv i64 %27, 1000
  %29 = add nsw i64 %28, %25
  br label %Abc_Clock.exit29

Abc_Clock.exit29:                                 ; preds = %20, %23
  %.0.i28 = phi i64 [ %29, %23 ], [ -1, %20 ]
  call void @llvm.lifetime.end.p0(i64 16, ptr nonnull %10) #12
  %30 = add i64 %.0.i28, %.0.i.neg
  %31 = sitofp i64 %30 to double
  %32 = fdiv double %31, 1.000000e+06
  call void (i32, ptr, ...) @Abc_Print(i32 poison, ptr noundef nonnull @.str.2, double noundef %32)
  br label %33

33:                                               ; preds = %Abc_Clock.exit29, %Abc_Clock.exit
  call void @Aig_ManStop(ptr noundef %19) #12
  call void @Saig_ManCreateMapping(ptr noundef %0, ptr noundef %12, i32 noundef %1)
  call void @Aig_ManStop(ptr noundef %12) #12
  %34 = getelementptr inbounds nuw i8, ptr %0, i64 296
  %35 = load ptr, ptr %34, align 8, !tbaa !32
  %36 = getelementptr inbounds nuw i8, ptr %35, i64 8
  %37 = load ptr, ptr %36, align 8, !tbaa !25
  %.not.i.i = icmp eq ptr %37, null
  br i1 %.not.i.i, label %Saig_ManStopMap1.exit, label %38

38:                                               ; preds = %33
  call void @free(ptr noundef nonnull %37) #12
  br label %Saig_ManStopMap1.exit

Saig_ManStopMap1.exit:                            ; preds = %33, %38
  call void @free(ptr noundef nonnull %35) #12
  store ptr null, ptr %34, align 8, !tbaa !32
  call void @llvm.lifetime.start.p0(i64 16, ptr nonnull %9) #12
  %39 = call i32 @clock_gettime(i32 noundef 1, ptr noundef nonnull %9) #12
  %40 = icmp slt i32 %39, 0
  br i1 %40, label %Abc_Clock.exit31, label %41

41:                                               ; preds = %Saig_ManStopMap1.exit
  %42 = load i64, ptr %9, align 8, !tbaa !67
  %.neg42 = mul i64 %42, -1000000
  %43 = getelementptr inbounds nuw i8, ptr %9, i64 8
  %44 = load i64, ptr %43, align 8, !tbaa !69
  %.neg41 = sdiv i64 %44, -1000
  %.neg43 = add i64 %.neg41, %.neg42
  br label %Abc_Clock.exit31

Abc_Clock.exit31:                                 ; preds = %Saig_ManStopMap1.exit, %41
  %.0.i30.neg = phi i64 [ %.neg43, %41 ], [ 1, %Saig_ManStopMap1.exit ]
  call void @llvm.lifetime.end.p0(i64 16, ptr nonnull %9) #12
  %45 = call ptr @Saig_ManFramesInitialMapped(ptr noundef nonnull %0, i32 noundef %1, i32 noundef %2, i32 noundef %3)
  call void (i32, ptr, ...) @Abc_Print(i32 poison, ptr noundef nonnull @.str, ptr noundef nonnull @.str.3)
  call void @llvm.lifetime.start.p0(i64 16, ptr nonnull %8) #12
  %46 = call i32 @clock_gettime(i32 noundef 1, ptr noundef nonnull %8) #12
  %47 = icmp slt i32 %46, 0
  br i1 %47, label %Abc_Clock.exit33, label %48

48:                                               ; preds = %Abc_Clock.exit31
  %49 = load i64, ptr %8, align 8, !tbaa !67
  %50 = mul nsw i64 %49, 1000000
  %51 = getelementptr inbounds nuw i8, ptr %8, i64 8
  %52 = load i64, ptr %51, align 8, !tbaa !69
  %53 = sdiv i64 %52, 1000
  %54 = add nsw i64 %53, %50
  br label %Abc_Clock.exit33

Abc_Clock.exit33:                                 ; preds = %Abc_Clock.exit31, %48
  %.0.i32 = phi i64 [ %54, %48 ], [ -1, %Abc_Clock.exit31 ]
  call void @llvm.lifetime.end.p0(i64 16, ptr nonnull %8) #12
  %55 = add i64 %.0.i32, %.0.i30.neg
  %56 = sitofp i64 %55 to double
  %57 = fdiv double %56, 1.000000e+06
  call void (i32, ptr, ...) @Abc_Print(i32 poison, ptr noundef nonnull @.str.2, double noundef %57)
  %58 = getelementptr inbounds nuw i8, ptr %0, i64 304
  %59 = load ptr, ptr %58, align 8, !tbaa !28
  %60 = getelementptr inbounds nuw i8, ptr %59, i64 8
  %61 = load ptr, ptr %60, align 8, !tbaa !25
  %.not.i.i34 = icmp eq ptr %61, null
  br i1 %.not.i.i34, label %Saig_ManStopMap2.exit, label %62

62:                                               ; preds = %Abc_Clock.exit33
  call void @free(ptr noundef nonnull %61) #12
  br label %Saig_ManStopMap2.exit

Saig_ManStopMap2.exit:                            ; preds = %Abc_Clock.exit33, %62
  call void @free(ptr noundef nonnull %59) #12
  store ptr null, ptr %58, align 8, !tbaa !28
  call void @llvm.lifetime.start.p0(i64 16, ptr nonnull %7) #12
  %63 = call i32 @clock_gettime(i32 noundef 1, ptr noundef nonnull %7) #12
  %64 = icmp slt i32 %63, 0
  br i1 %64, label %Abc_Clock.exit36, label %65

65:                                               ; preds = %Saig_ManStopMap2.exit
  %66 = load i64, ptr %7, align 8, !tbaa !67
  %.neg45 = mul i64 %66, -1000000
  %67 = getelementptr inbounds nuw i8, ptr %7, i64 8
  %68 = load i64, ptr %67, align 8, !tbaa !69
  %.neg44 = sdiv i64 %68, -1000
  %.neg46 = add i64 %.neg44, %.neg45
  br label %Abc_Clock.exit36

Abc_Clock.exit36:                                 ; preds = %Saig_ManStopMap2.exit, %65
  %.0.i35.neg = phi i64 [ %.neg46, %65 ], [ 1, %Saig_ManStopMap2.exit ]
  call void @llvm.lifetime.end.p0(i64 16, ptr nonnull %7) #12
  %69 = call ptr @Saig_ManFramesInitialMapped(ptr noundef nonnull %0, i32 noundef %1, i32 noundef %2, i32 noundef %3)
  call void (i32, ptr, ...) @Abc_Print(i32 poison, ptr noundef nonnull @.str, ptr noundef nonnull @.str.4)
  call void @llvm.lifetime.start.p0(i64 16, ptr nonnull %6) #12
  %70 = call i32 @clock_gettime(i32 noundef 1, ptr noundef nonnull %6) #12
  %71 = icmp slt i32 %70, 0
  br i1 %71, label %Abc_Clock.exit38, label %72

72:                                               ; preds = %Abc_Clock.exit36
  %73 = load i64, ptr %6, align 8, !tbaa !67
  %74 = mul nsw i64 %73, 1000000
  %75 = getelementptr inbounds nuw i8, ptr %6, i64 8
  %76 = load i64, ptr %75, align 8, !tbaa !69
  %77 = sdiv i64 %76, 1000
  %78 = add nsw i64 %77, %74
  br label %Abc_Clock.exit38

Abc_Clock.exit38:                                 ; preds = %Abc_Clock.exit36, %72
  %.0.i37 = phi i64 [ %78, %72 ], [ -1, %Abc_Clock.exit36 ]
  call void @llvm.lifetime.end.p0(i64 16, ptr nonnull %6) #12
  %79 = add i64 %.0.i37, %.0.i35.neg
  %80 = sitofp i64 %79 to double
  %81 = fdiv double %80, 1.000000e+06
  call void (i32, ptr, ...) @Abc_Print(i32 poison, ptr noundef nonnull @.str.2, double noundef %81)
  br i1 %.not, label %83, label %82

82:                                               ; preds = %Abc_Clock.exit38
  call void @Aig_ManPrintStats(ptr noundef %69) #12
  call void @Aig_ManPrintStats(ptr noundef %45) #12
  br label %83

83:                                               ; preds = %82, %Abc_Clock.exit38
  call void @Aig_ManStop(ptr noundef %69) #12
  ret ptr %45
}